target datalayout = "e-m:e-p270:32:32-p271:32:32-p272:64:64-i64:64-i128:128-f80:128-n8:16:32:64-S128"
target triple = "x86_64-pc-linux-gnu"

%"struct.ODDLParser::DataArrayList" = type { i64, ptr, ptr, ptr, i64 }

@_ZN10ODDLParser7GrammarL14CommaSeparatorE = internal global ptr @.str.26, align 8
@_ZN10ODDLParser7GrammarL16OpenBracketTokenE = internal global ptr @.str.37, align 8

; Function Attrs: inlinehint mustprogress nounwind uwtable
define linkonce_odr hidden noundef zeroext i1 @_ZN10ODDLParser9isNewLineIcEEbT_(i8 noundef signext %0) #12 comdat {
  %2 = alloca i8, align 1
  store i8 %0, ptr %2, align 1
  %3 = load i8, ptr %2, align 1
  %4 = sext i8 %3 to i32
  %5 = icmp eq i32 10, %4
  br i1 %5, label %10, label %6

6:                                                ; preds = %1
  %7 = load i8, ptr %2, align 1
  %8 = sext i8 %7 to i32
  %9 = icmp eq i32 13, %8
  br label %10

10:                                               ; preds = %6, %1
  %11 = phi i1 [ true, %1 ], [ %9, %6 ]
  ret i1 %11
}

; Function Attrs: inlinehint mustprogress nounwind uwtable
define linkonce_odr hidden noundef zeroext i1 @_ZN10ODDLParser7isSpaceIcEEbT_(i8 noundef signext %0) #12 comdat {
  %2 = alloca i8, align 1
  store i8 %0, ptr %2, align 1
  %3 = load i8, ptr %2, align 1
  %4 = sext i8 %3 to i32
  %5 = icmp eq i32 32, %4
  br i1 %5, label %10, label %6

6:                                                ; preds = %1
  %7 = load i8, ptr %2, align 1
  %8 = sext i8 %7 to i32
  %9 = icmp eq i32 9, %8
  br label %10

10:                                               ; preds = %6, %1
  %11 = phi i1 [ true, %1 ], [ %9, %6 ]
  ret i1 %11
}

; Function Attrs: mustprogress uwtable
define internal noundef ptr @_ZN10ODDLParserL19createDataArrayListEPNS_5ValueEmPNS_9ReferenceEm(ptr noundef %0, i64 noundef %1, ptr noundef %2, i64 noundef %3) #6 personality ptr @__gxx_personality_v0 {
  %5 = alloca ptr, align 8
  %6 = alloca i64, align 8
  %7 = alloca ptr, align 8
  %8 = alloca i64, align 8
  %9 = alloca ptr, align 8
  %10 = alloca ptr, align 8
  %11 = alloca i32, align 4
  store ptr %0, ptr %5, align 8
  store i64 %1, ptr %6, align 8
  store ptr %2, ptr %7, align 8
  store i64 %3, ptr %8, align 8
  call void @llvm.lifetime.start.p0(i64 8, ptr %9) #3
  %12 = call noalias noundef nonnull ptr @_Znwm(i64 noundef 40) #21
  invoke void @_ZN10ODDLParser13DataArrayListC1Ev(ptr noundef nonnull align 8 dereferenceable(40) %12)
          to label %13 unwind label %27

13:                                               ; preds = %4
  store ptr %12, ptr %9, align 8
  %14 = load ptr, ptr %5, align 8
  %15 = load ptr, ptr %9, align 8
  %16 = getelementptr inbounds nuw %"struct.ODDLParser::DataArrayList", ptr %15, i32 0, i32 1
  store ptr %14, ptr %16, align 8
  %17 = load i64, ptr %6, align 8
  %18 = load ptr, ptr %9, align 8
  %19 = getelementptr inbounds nuw %"struct.ODDLParser::DataArrayList", ptr %18, i32 0, i32 0
  store i64 %17, ptr %19, align 8
  %20 = load ptr, ptr %7, align 8
  %21 = load ptr, ptr %9, align 8
  %22 = getelementptr inbounds nuw %"struct.ODDLParser::DataArrayList", ptr %21, i32 0, i32 3
  store ptr %20, ptr %22, align 8
  %23 = load i64, ptr %8, align 8
  %24 = load ptr, ptr %9, align 8
  %25 = getelementptr inbounds nuw %"struct.ODDLParser::DataArrayList", ptr %24, i32 0, i32 4
  store i64 %23, ptr %25, align 8
  %26 = load ptr, ptr %9, align 8
  call void @llvm.lifetime.end.p0(i64 8, ptr %9) #3
  ret ptr %26

27:                                               ; preds = %4
  %28 = landingpad { ptr, i32 }
          cleanup
  %29 = extractvalue { ptr, i32 } %28, 0
  store ptr %29, ptr %10, align 8
  %30 = extractvalue { ptr, i32 } %28, 1
  store i32 %30, ptr %11, align 4
  call void @_ZdlPvm(ptr noundef %12, i64 noundef 40) #20
  call void @llvm.lifetime.end.p0(i64 8, ptr %9) #3
  br label %31

31:                                               ; preds = %27
  %32 = load ptr, ptr %10, align 8
  %33 = load i32, ptr %11, align 4
  %34 = insertvalue { ptr, i32 } poison, ptr %32, 0
  %35 = insertvalue { ptr, i32 } %34, i32 %33, 1
  resume { ptr, i32 } %35
}

; Function Attrs: inlinehint mustprogress uwtable
define linkonce_odr hidden noundef ptr @_ZN10ODDLParser16lookForNextTokenIcEEPT_S2_S2_(ptr noundef %0, ptr noundef %1) #10 comdat {
  %3 = alloca ptr, align 8
  %4 = alloca ptr, align 8
  store ptr %0, ptr %3, align 8
  store ptr %1, ptr %4, align 8
  br label %5

5:                                                ; preds = %26, %2
  %6 = load ptr, ptr %3, align 8
  %7 = load ptr, ptr %4, align 8
  %8 = icmp ne ptr %6, %7
  br i1 %8, label %9, label %24

9:                                                ; preds = %5
  %10 = load ptr, ptr %3, align 8
  %11 = load i8, ptr %10, align 1
  %12 = call noundef zeroext i1 @_ZN10ODDLParser7isSpaceIcEEbT_(i8 noundef signext %11)
  br i1 %12, label %22, label %13

13:                                               ; preds = %9
  %14 = load ptr, ptr %3, align 8
  %15 = load i8, ptr %14, align 1
  %16 = call noundef zeroext i1 @_ZN10ODDLParser9isNewLineIcEEbT_(i8 noundef signext %15)
  br i1 %16, label %22, label %17

17:                                               ; preds = %13
  %18 = load ptr, ptr %3, align 8
  %19 = load i8, ptr %18, align 1
  %20 = sext i8 %19 to i32
  %21 = icmp eq i32 44, %20
  br label %22

22:                                               ; preds = %17, %13, %9
  %23 = phi i1 [ true, %13 ], [ true, %9 ], [ %21, %17 ]
  br label %24

24:                                               ; preds = %22, %5
  %25 = phi i1 [ false, %5 ], [ %23, %22 ]
  br i1 %25, label %26, label %29

26:                                               ; preds = %24
  %27 = load ptr, ptr %3, align 8
  %28 = getelementptr inbounds nuw i8, ptr %27, i32 1
  store ptr %28, ptr %3, align 8
  br label %5, !llvm.loop !13

29:                                               ; preds = %24
  %30 = load ptr, ptr %3, align 8
  ret ptr %30
}

; Function Attrs: mustprogress uwtable
define hidden noundef ptr @_ZN10ODDLParser13OpenDDLParser18parseDataArrayListEPcS1_NS_5Value9ValueTypeEPPNS_13DataArrayListE(ptr noundef %0, ptr noundef %1, i32 noundef %2, ptr noundef %3) #6 align 2 {
  %5 = alloca ptr, align 8
  %6 = alloca ptr, align 8
  %7 = alloca ptr, align 8
  %8 = alloca i32, align 4
  %9 = alloca ptr, align 8
  %10 = alloca ptr, align 8
  %11 = alloca ptr, align 8
  %12 = alloca ptr, align 8
  %13 = alloca ptr, align 8
  %14 = alloca i64, align 8
  %15 = alloca i64, align 8
  store ptr %0, ptr %6, align 8
  store ptr %1, ptr %7, align 8
  store i32 %2, ptr %8, align 4
  store ptr %3, ptr %9, align 8
  %16 = load ptr, ptr %9, align 8
  %17 = icmp eq ptr null, %16
  br i1 %17, label %18, label %20

18:                                               ; preds = %4
  %19 = load ptr, ptr %6, align 8
  store ptr %19, ptr %5, align 8
  br label %106

20:                                               ; preds = %4
  %21 = load ptr, ptr %9, align 8
  store ptr null, ptr %21, align 8
  %22 = load ptr, ptr %6, align 8
  %23 = icmp eq ptr null, %22
  br i1 %23, label %28, label %24

24:                                               ; preds = %20
  %25 = load ptr, ptr %6, align 8
  %26 = load ptr, ptr %7, align 8
  %27 = icmp eq ptr %25, %26
  br i1 %27, label %28, label %30

28:                                               ; preds = %24, %20
  %29 = load ptr, ptr %6, align 8
  store ptr %29, ptr %5, align 8
  br label %106

30:                                               ; preds = %24
  %31 = load ptr, ptr %6, align 8
  %32 = load ptr, ptr %7, align 8
  %33 = call noundef ptr @_ZN10ODDLParser16lookForNextTokenIcEEPT_S2_S2_(ptr noundef %31, ptr noundef %32)
  store ptr %33, ptr %6, align 8
  %34 = load ptr, ptr %6, align 8
  %35 = load i8, ptr %34, align 1
  %36 = sext i8 %35 to i32
  %37 = load ptr, ptr @_ZN10ODDLParser7GrammarL16OpenBracketTokenE, align 8
  %38 = getelementptr inbounds i8, ptr %37, i64 0
  %39 = load i8, ptr %38, align 1
  %40 = sext i8 %39 to i32
  %41 = icmp eq i32 %36, %40
  br i1 %41, label %42, label %104

42:                                               ; preds = %30
  %43 = load ptr, ptr %6, align 8
  %44 = getelementptr inbounds nuw i8, ptr %43, i32 1
  store ptr %44, ptr %6, align 8
  call void @llvm.lifetime.start.p0(i64 8, ptr %10) #3
  store ptr null, ptr %10, align 8
  call void @llvm.lifetime.start.p0(i64 8, ptr %11) #3
  store ptr null, ptr %11, align 8
  call void @llvm.lifetime.start.p0(i64 8, ptr %12) #3
  store ptr null, ptr %12, align 8
  call void @llvm.lifetime.start.p0(i64 8, ptr %13) #3
  store ptr null, ptr %13, align 8
  br label %45

45:                                               ; preds = %96, %42
  call void @llvm.lifetime.start.p0(i64 8, ptr %14) #3
  store i64 0, ptr %14, align 8
  call void @llvm.lifetime.start.p0(i64 8, ptr %15) #3
  store i64 0, ptr %15, align 8
  store ptr null, ptr %10, align 8
  %46 = load ptr, ptr %6, align 8
  %47 = load ptr, ptr %7, align 8
  %48 = load i32, ptr %8, align 4
  %49 = call noundef ptr @_ZN10ODDLParser13OpenDDLParser13parseDataListEPcS1_NS_5Value9ValueTypeEPPS2_RmPPNS_9ReferenceES6_(ptr noundef %46, ptr noundef %47, i32 noundef %48, ptr noundef %10, ptr noundef nonnull align 8 dereferenceable(8) %15, ptr noundef %11, ptr noundef nonnull align 8 dereferenceable(8) %14)
  store ptr %49, ptr %6, align 8
  %50 = load ptr, ptr %10, align 8
  %51 = icmp ne ptr null, %50
  br i1 %51, label %55, label %52

52:                                               ; preds = %45
  %53 = load i64, ptr %14, align 8
  %54 = icmp ne i64 0, %53
  br i1 %54, label %55, label %82

55:                                               ; preds = %52, %45
  %56 = load ptr, ptr %12, align 8
  %57 = icmp eq ptr null, %56
  br i1 %57, label %58, label %67

58:                                               ; preds = %55
  %59 = load ptr, ptr %10, align 8
  %60 = load i64, ptr %15, align 8
  %61 = load ptr, ptr %11, align 8
  %62 = load i64, ptr %14, align 8
  %63 = call noundef ptr @_ZN10ODDLParserL19createDataArrayListEPNS_5ValueEmPNS_9ReferenceEm(ptr noundef %59, i64 noundef %60, ptr noundef %61, i64 noundef %62)
  %64 = load ptr, ptr %9, align 8
  store ptr %63, ptr %64, align 8
  %65 = load ptr, ptr %9, align 8
  %66 = load ptr, ptr %65, align 8
  store ptr %66, ptr %12, align 8
  br label %81

67:                                               ; preds = %55
  %68 = load ptr, ptr %10, align 8
  %69 = load i64, ptr %15, align 8
  %70 = load ptr, ptr %11, align 8
  %71 = load i64, ptr %14, align 8
  %72 = call noundef ptr @_ZN10ODDLParserL19createDataArrayListEPNS_5ValueEmPNS_9ReferenceEm(ptr noundef %68, i64 noundef %69, ptr noundef %70, i64 noundef %71)
  store ptr %72, ptr %13, align 8
  %73 = load ptr, ptr %12, align 8
  %74 = icmp ne ptr null, %73
  br i1 %74, label %75, label %80

75:                                               ; preds = %67
  %76 = load ptr, ptr %13, align 8
  %77 = load ptr, ptr %12, align 8
  %78 = getelementptr inbounds nuw %"struct.ODDLParser::DataArrayList", ptr %77, i32 0, i32 2
  store ptr %76, ptr %78, align 8
  %79 = load ptr, ptr %13, align 8
  store ptr %79, ptr %12, align 8
  br label %80

80:                                               ; preds = %75, %67
  br label %81

81:                                               ; preds = %80, %58
  br label %82

82:                                               ; preds = %81, %52
  call void @llvm.lifetime.end.p0(i64 8, ptr %15) #3
  call void @llvm.lifetime.end.p0(i64 8, ptr %14) #3
  br label %83

83:                                               ; preds = %82
  %84 = load ptr, ptr @_ZN10ODDLParser7GrammarL14CommaSeparatorE, align 8
  %85 = getelementptr inbounds i8, ptr %84, i64 0
  %86 = load i8, ptr %85, align 1
  %87 = sext i8 %86 to i32
  %88 = load ptr, ptr %6, align 8
  %89 = load i8, ptr %88, align 1
  %90 = sext i8 %89 to i32
  %91 = icmp eq i32 %87, %90
  br i1 %91, label %92, label %96

92:                                               ; preds = %83
  %93 = load ptr, ptr %6, align 8
  %94 = load ptr, ptr %7, align 8
  %95 = icmp ne ptr %93, %94
  br label %96

96:                                               ; preds = %92, %83
  %97 = phi i1 [ false, %83 ], [ %95, %92 ]
  br i1 %97, label %45, label %98, !llvm.loop !17

98:                                               ; preds = %96
  %99 = load ptr, ptr %6, align 8
  %100 = load ptr, ptr %7, align 8
  %101 = call noundef ptr @_ZN10ODDLParser16lookForNextTokenIcEEPT_S2_S2_(ptr noundef %99, ptr noundef %100)
  store ptr %101, ptr %6, align 8
  %102 = load ptr, ptr %6, align 8
  %103 = getelementptr inbounds nuw i8, ptr %102, i32 1
  store ptr %103, ptr %6, align 8
  call void @llvm.lifetime.end.p0(i64 8, ptr %13) #3
  call void @llvm.lifetime.end.p0(i64 8, ptr %12) #3
  call void @llvm.lifetime.end.p0(i64 8, ptr %11) #3
  call void @llvm.lifetime.end.p0(i64 8, ptr %10) #3
  br label %104

104:                                              ; preds = %98, %30
  %105 = load ptr, ptr %6, align 8
  store ptr %105, ptr %5, align 8
  br label %106

106:                                              ; preds = %104, %28, %18
  %107 = load ptr, ptr %5, align 8
  ret ptr %107
}