; Function Attrs: mustprogress uwtable
define hidden noundef ptr @_ZN10ODDLParser13OpenDDLParser18parseDataArrayListEPcS1_NS_5Value9ValueTypeEPPNS_13DataArrayListE(ptr noundef %0, ptr noundef %1, i32 noundef %2, ptr noundef writeonly captures(address_is_null) %3) local_unnamed_addr #6 align 2 personality ptr @__gxx_personality_v0 {
  %5 = alloca ptr, align 8
  %6 = alloca ptr, align 8
  %7 = alloca i64, align 8
  %8 = alloca i64, align 8
  %9 = icmp eq ptr %3, null
  br i1 %9, label %57, label %10

10:                                               ; preds = %4
  store ptr null, ptr %3, align 8
  %11 = icmp eq ptr %0, null
  %12 = icmp eq ptr %0, %1
  %or.cond36 = or i1 %11, %12
  br i1 %or.cond36, label %57, label %.lr.ph.preheader.i

.lr.ph.preheader.i:                               ; preds = %10
  %13 = ptrtoint ptr %1 to i64
  %14 = ptrtoint ptr %0 to i64
  %15 = sub i64 %13, %14
  %scevgep.i = getelementptr i8, ptr %0, i64 %15
  br label %.lr.ph.i

.lr.ph.i:                                         ; preds = %.critedge2.i, %.lr.ph.preheader.i
  %.010.i = phi ptr [ %17, %.critedge2.i ], [ %0, %.lr.ph.preheader.i ]
  %16 = load i8, ptr %.010.i, align 1
  switch i8 %16, label %_ZN10ODDLParser16lookForNextTokenIcEEPT_S2_S2_.exit [
    i8 32, label %.critedge2.i
    i8 9, label %.critedge2.i
    i8 13, label %.critedge2.i
    i8 10, label %.critedge2.i
    i8 44, label %.critedge2.i
  ]

.critedge2.i:                                     ; preds = %.lr.ph.i, %.lr.ph.i, %.lr.ph.i, %.lr.ph.i, %.lr.ph.i
  %17 = getelementptr inbounds nuw i8, ptr %.010.i, i64 1
  %.not.i = icmp eq ptr %17, %1
  br i1 %.not.i, label %_ZN10ODDLParser16lookForNextTokenIcEEPT_S2_S2_.exitthread-pre-split, label %.lr.ph.i, !llvm.loop !8

_ZN10ODDLParser16lookForNextTokenIcEEPT_S2_S2_.exitthread-pre-split: ; preds = %.critedge2.i
  %.pr = load i8, ptr %scevgep.i, align 1
  br label %_ZN10ODDLParser16lookForNextTokenIcEEPT_S2_S2_.exit

_ZN10ODDLParser16lookForNextTokenIcEEPT_S2_S2_.exit: ; preds = %.lr.ph.i, %_ZN10ODDLParser16lookForNextTokenIcEEPT_S2_S2_.exitthread-pre-split
  %18 = phi i8 [ %.pr, %_ZN10ODDLParser16lookForNextTokenIcEEPT_S2_S2_.exitthread-pre-split ], [ %16, %.lr.ph.i ]
  %.0.lcssa.i = phi ptr [ %scevgep.i, %_ZN10ODDLParser16lookForNextTokenIcEEPT_S2_S2_.exitthread-pre-split ], [ %.010.i, %.lr.ph.i ]
  %19 = icmp eq i8 %18, 123
  br i1 %19, label %20, label %57

20:                                               ; preds = %_ZN10ODDLParser16lookForNextTokenIcEEPT_S2_S2_.exit
  %21 = getelementptr inbounds nuw i8, ptr %.0.lcssa.i, i64 1
  call void @llvm.lifetime.start.p0(i64 8, ptr nonnull %5) #29
  call void @llvm.lifetime.start.p0(i64 8, ptr nonnull %6) #29
  store ptr null, ptr %6, align 8
  br label %22

22:                                               ; preds = %46, %20
  %.131 = phi ptr [ %21, %20 ], [ %23, %46 ]
  %.0 = phi ptr [ null, %20 ], [ %.1, %46 ]
  call void @llvm.lifetime.start.p0(i64 8, ptr nonnull %7) #29
  store i64 0, ptr %7, align 8
  call void @llvm.lifetime.start.p0(i64 8, ptr nonnull %8) #29
  store i64 0, ptr %8, align 8
  store ptr null, ptr %5, align 8
  %23 = call noundef ptr @_ZN10ODDLParser13OpenDDLParser13parseDataListEPcS1_NS_5Value9ValueTypeEPPS2_RmPPNS_9ReferenceES6_(ptr noundef nonnull %.131, ptr noundef %1, i32 noundef %2, ptr noundef nonnull %5, ptr noundef nonnull align 8 dereferenceable(8) %8, ptr noundef nonnull %6, ptr noundef nonnull align 8 dereferenceable(8) %7)
  %24 = load ptr, ptr %5, align 8
  %25 = icmp ne ptr %24, null
  %26 = load i64, ptr %7, align 8
  %27 = icmp ne i64 %26, 0
  %or.cond = select i1 %25, i1 true, i1 %27
  br i1 %or.cond, label %28, label %46

28:                                               ; preds = %22
  %29 = icmp eq ptr %.0, null
  %30 = load i64, ptr %8, align 8
  %31 = load ptr, ptr %6, align 8
  %32 = tail call noalias noundef nonnull dereferenceable(40) ptr @_Znwm(i64 noundef 40) #33
  br i1 %29, label %33, label %39

33:                                               ; preds = %28
  invoke void @_ZN10ODDLParser13DataArrayListC1Ev(ptr noundef nonnull align 8 dereferenceable(40) %32)
          to label %_ZN10ODDLParserL19createDataArrayListEPNS_5ValueEmPNS_9ReferenceEm.exit unwind label %34

common.resume:                                    ; preds = %40, %34
  %common.resume.op = phi { ptr, i32 } [ %35, %34 ], [ %41, %40 ]
  tail call void @_ZdlPvm(ptr noundef nonnull %32, i64 noundef 40) #30
  resume { ptr, i32 } %common.resume.op

34:                                               ; preds = %33
  %35 = landingpad { ptr, i32 }
          cleanup
  br label %common.resume

_ZN10ODDLParserL19createDataArrayListEPNS_5ValueEmPNS_9ReferenceEm.exit: ; preds = %33
  %36 = getelementptr inbounds nuw i8, ptr %32, i64 8
  store ptr %24, ptr %36, align 8
  store i64 %30, ptr %32, align 8
  %37 = getelementptr inbounds nuw i8, ptr %32, i64 24
  store ptr %31, ptr %37, align 8
  %38 = getelementptr inbounds nuw i8, ptr %32, i64 32
  store i64 %26, ptr %38, align 8
  store ptr %32, ptr %3, align 8
  br label %46

39:                                               ; preds = %28
  invoke void @_ZN10ODDLParser13DataArrayListC1Ev(ptr noundef nonnull align 8 dereferenceable(40) %32)
          to label %_ZN10ODDLParserL19createDataArrayListEPNS_5ValueEmPNS_9ReferenceEm.exit37 unwind label %40

40:                                               ; preds = %39
  %41 = landingpad { ptr, i32 }
          cleanup
  br label %common.resume

_ZN10ODDLParserL19createDataArrayListEPNS_5ValueEmPNS_9ReferenceEm.exit37: ; preds = %39
  %42 = getelementptr inbounds nuw i8, ptr %32, i64 8
  store ptr %24, ptr %42, align 8
  store i64 %30, ptr %32, align 8
  %43 = getelementptr inbounds nuw i8, ptr %32, i64 24
  store ptr %31, ptr %43, align 8
  %44 = getelementptr inbounds nuw i8, ptr %32, i64 32
  store i64 %26, ptr %44, align 8
  %45 = getelementptr inbounds nuw i8, ptr %.0, i64 16
  store ptr %32, ptr %45, align 8
  br label %46

46:                                               ; preds = %_ZN10ODDLParserL19createDataArrayListEPNS_5ValueEmPNS_9ReferenceEm.exit, %_ZN10ODDLParserL19createDataArrayListEPNS_5ValueEmPNS_9ReferenceEm.exit37, %22
  %.1 = phi ptr [ %32, %_ZN10ODDLParserL19createDataArrayListEPNS_5ValueEmPNS_9ReferenceEm.exit ], [ %32, %_ZN10ODDLParserL19createDataArrayListEPNS_5ValueEmPNS_9ReferenceEm.exit37 ], [ %.0, %22 ]
  call void @llvm.lifetime.end.p0(i64 8, ptr nonnull %8) #29
  call void @llvm.lifetime.end.p0(i64 8, ptr nonnull %7) #29
  %47 = load i8, ptr %23, align 1
  %48 = icmp eq i8 %47, 44
  %49 = icmp ne ptr %23, %1
  %50 = and i1 %49, %48
  br i1 %50, label %22, label %51, !llvm.loop !30

51:                                               ; preds = %46
  %.not9.i38 = icmp eq ptr %23, %1
  br i1 %.not9.i38, label %_ZN10ODDLParser16lookForNextTokenIcEEPT_S2_S2_.exit46, label %.lr.ph.preheader.i39

.lr.ph.preheader.i39:                             ; preds = %51
  %52 = ptrtoint ptr %23 to i64
  %53 = sub i64 %13, %52
  %scevgep.i40 = getelementptr i8, ptr %23, i64 %53
  br label %.lr.ph.i41

.lr.ph.i41:                                       ; preds = %.critedge2.i43, %.lr.ph.preheader.i39
  %.010.i42 = phi ptr [ %55, %.critedge2.i43 ], [ %23, %.lr.ph.preheader.i39 ]
  %54 = load i8, ptr %.010.i42, align 1
  switch i8 %54, label %_ZN10ODDLParser16lookForNextTokenIcEEPT_S2_S2_.exit46 [
    i8 32, label %.critedge2.i43
    i8 9, label %.critedge2.i43
    i8 13, label %.critedge2.i43
    i8 10, label %.critedge2.i43
    i8 44, label %.critedge2.i43
  ]

.critedge2.i43:                                   ; preds = %.lr.ph.i41, %.lr.ph.i41, %.lr.ph.i41, %.lr.ph.i41, %.lr.ph.i41
  %55 = getelementptr inbounds nuw i8, ptr %.010.i42, i64 1
  %.not.i44 = icmp eq ptr %55, %1
  br i1 %.not.i44, label %_ZN10ODDLParser16lookForNextTokenIcEEPT_S2_S2_.exit46, label %.lr.ph.i41, !llvm.loop !8

_ZN10ODDLParser16lookForNextTokenIcEEPT_S2_S2_.exit46: ; preds = %.lr.ph.i41, %.critedge2.i43, %51
  %.0.lcssa.i45 = phi ptr [ %23, %51 ], [ %scevgep.i40, %.critedge2.i43 ], [ %.010.i42, %.lr.ph.i41 ]
  %56 = getelementptr inbounds nuw i8, ptr %.0.lcssa.i45, i64 1
  call void @llvm.lifetime.end.p0(i64 8, ptr nonnull %6) #29
  call void @llvm.lifetime.end.p0(i64 8, ptr nonnull %5) #29
  br label %57

57:                                               ; preds = %_ZN10ODDLParser16lookForNextTokenIcEEPT_S2_S2_.exit, %_ZN10ODDLParser16lookForNextTokenIcEEPT_S2_S2_.exit46, %10, %4
  %.029 = phi ptr [ %0, %4 ], [ %0, %10 ], [ %56, %_ZN10ODDLParser16lookForNextTokenIcEEPT_S2_S2_.exit46 ], [ %.0.lcssa.i, %_ZN10ODDLParser16lookForNextTokenIcEEPT_S2_S2_.exit ]
  ret ptr %.029
}